target datalayout = "e-m:e-p270:32:32-p271:32:32-p272:64:64-i64:64-i128:128-f80:128-n8:16:32:64-S128"
target triple = "x86_64-pc-linux-gnu"

%struct.LWLockHandle = type { ptr, i32 }
%struct.LWLock = type { i16, %struct.pg_atomic_uint32, %struct.proclist_head }
%struct.pg_atomic_uint32 = type { i32 }
%struct.proclist_head = type { i32, i32 }
%struct.PGPROC = type { %struct.dlist_node, ptr, ptr, i32, %struct.Latch, i32, i32, i32, i32, %struct.anon, i32, i32, i32, i8, i8, i8, i8, %struct.proclist_node, %struct.proclist_node, ptr, ptr, i32, i32, %struct.pg_atomic_uint64, i32, i8, i64, i32, %struct.dlist_node, [16 x %struct.dlist_head], %struct.XidCacheStatus, %struct.XidCache, i8, %struct.pg_atomic_uint32, i32, i32, i8, %struct.pg_atomic_uint32, i32, i32, i64, i64, %struct.LWLock, ptr, ptr, i8, i32, ptr, %struct.dlist_head, %struct.dlist_node }
%struct.Latch = type { i32, i32, i8, i32 }
%struct.anon = type { i32, i32 }
%struct.proclist_node = type { i32, i32 }
%struct.pg_atomic_uint64 = type { i64 }
%struct.XidCacheStatus = type { i8, i8 }
%struct.XidCache = type { [64 x i32] }
%struct.dlist_head = type { %struct.dlist_node }
%struct.dlist_node = type { ptr, ptr }

@.str.1 = private unnamed_addr constant [9 x i8] c"lwlock.c\00", align 1
@MyProc = external global ptr, align 8
@num_held_lwlocks = internal global i32 0, align 4
@.str.3 = private unnamed_addr constant [23 x i8] c"too many LWLocks taken\00", align 1
@__func__.LWLockAcquire = private unnamed_addr constant [14 x i8] c"LWLockAcquire\00", align 1
@InterruptHoldoffCount = external global i32, align 4
@held_lwlocks = internal global [200 x %struct.LWLockHandle] zeroinitializer, align 16
@my_wait_event_info = external global ptr, align 8

; Function Attrs: inlinehint nounwind uwtable
define internal zeroext i1 @pg_atomic_compare_exchange_u32_impl(ptr noundef %0, ptr noundef %1, i32 noundef %2) #5 {
  %4 = alloca ptr, align 8
  %5 = alloca ptr, align 8
  %6 = alloca i32, align 4
  %7 = alloca i8, align 1
  store ptr %0, ptr %4, align 8
  store ptr %1, ptr %5, align 8
  store i32 %2, ptr %6, align 4
  call void @llvm.lifetime.start.p0(i64 1, ptr %7) #9
  %8 = load ptr, ptr %5, align 8
  %9 = load ptr, ptr %4, align 8
  %10 = getelementptr inbounds nuw %struct.pg_atomic_uint32, ptr %9, i32 0, i32 0
  %11 = load ptr, ptr %5, align 8
  %12 = load i32, ptr %11, align 4
  %13 = load i32, ptr %6, align 4
  %14 = load ptr, ptr %4, align 8
  %15 = getelementptr inbounds nuw %struct.pg_atomic_uint32, ptr %14, i32 0, i32 0
  %16 = call { i32, i8 } asm sideeffect "\09lock\09\09\09\09\0A\09cmpxchgl\09$4,$5\09\0A   setz\09\09$2\09\09\0A", "={ax},=*m,=q,{ax},r,*m,~{memory},~{cc},~{dirflag},~{fpsr},~{flags}"(ptr elementtype(i32) %10, i32 %12, i32 %13, ptr elementtype(i32) %15) #9, !srcloc !36
  %17 = extractvalue { i32, i8 } %16, 0
  %18 = extractvalue { i32, i8 } %16, 1
  store i32 %17, ptr %8, align 4
  store i8 %18, ptr %7, align 1
  %19 = load i8, ptr %7, align 1
  %20 = icmp ne i8 %19, 0
  call void @llvm.lifetime.end.p0(i64 1, ptr %7) #9
  ret i1 %20
}

; Function Attrs: inlinehint nounwind uwtable
define internal i32 @pg_atomic_read_u32_impl(ptr noundef %0) #5 {
  %2 = alloca ptr, align 8
  store ptr %0, ptr %2, align 8
  %3 = load ptr, ptr %2, align 8
  %4 = getelementptr inbounds nuw %struct.pg_atomic_uint32, ptr %3, i32 0, i32 0
  %5 = load volatile i32, ptr %4, align 4
  ret i32 %5
}

; Function Attrs: inlinehint nounwind uwtable
define internal void @pgstat_report_wait_end() #5 {
  %1 = load ptr, ptr @my_wait_event_info, align 8
  store volatile i32 0, ptr %1, align 4
  ret void
}

; Function Attrs: inlinehint nounwind uwtable
define internal i32 @pg_atomic_fetch_or_u32_impl(ptr noundef %0, i32 noundef %1) #5 {
  %3 = alloca ptr, align 8
  %4 = alloca i32, align 4
  store ptr %0, ptr %3, align 8
  store i32 %1, ptr %4, align 4
  %5 = load ptr, ptr %3, align 8
  %6 = getelementptr inbounds nuw %struct.pg_atomic_uint32, ptr %5, i32 0, i32 0
  %7 = load i32, ptr %4, align 4
  %8 = atomicrmw or ptr %6, i32 %7 seq_cst, align 4
  ret i32 %8
}

; Function Attrs: inlinehint nounwind uwtable
define internal void @pgstat_report_wait_start(i32 noundef %0) #5 {
  %2 = alloca i32, align 4
  store i32 %0, ptr %2, align 4
  %3 = load i32, ptr %2, align 4
  %4 = load ptr, ptr @my_wait_event_info, align 8
  store volatile i32 %3, ptr %4, align 4
  ret void
}

; Function Attrs: inlinehint nounwind uwtable
define internal zeroext i1 @pg_atomic_compare_exchange_u32(ptr noundef %0, ptr noundef %1, i32 noundef %2) #5 {
  %4 = alloca ptr, align 8
  %5 = alloca ptr, align 8
  %6 = alloca i32, align 4
  store ptr %0, ptr %4, align 8
  store ptr %1, ptr %5, align 8
  store i32 %2, ptr %6, align 4
  %7 = load ptr, ptr %4, align 8
  %8 = load ptr, ptr %5, align 8
  %9 = load i32, ptr %6, align 4
  %10 = call zeroext i1 @pg_atomic_compare_exchange_u32_impl(ptr noundef %7, ptr noundef %8, i32 noundef %9)
  ret i1 %10
}

; Function Attrs: inlinehint nounwind uwtable
define internal i32 @pg_atomic_read_u32(ptr noundef %0) #5 {
  %2 = alloca ptr, align 8
  store ptr %0, ptr %2, align 8
  %3 = load ptr, ptr %2, align 8
  %4 = call i32 @pg_atomic_read_u32_impl(ptr noundef %3)
  ret i32 %4
}

; Function Attrs: inlinehint nounwind uwtable
define internal void @LWLockReportWaitEnd() #5 {
  call void @pgstat_report_wait_end()
  ret void
}

; Function Attrs: inlinehint nounwind uwtable
define internal i32 @pg_atomic_fetch_or_u32(ptr noundef %0, i32 noundef %1) #5 {
  %3 = alloca ptr, align 8
  %4 = alloca i32, align 4
  store ptr %0, ptr %3, align 8
  store i32 %1, ptr %4, align 4
  %5 = load ptr, ptr %3, align 8
  %6 = load i32, ptr %4, align 4
  %7 = call i32 @pg_atomic_fetch_or_u32_impl(ptr noundef %5, i32 noundef %6)
  ret i32 %7
}

; Function Attrs: inlinehint nounwind uwtable
define internal void @LWLockReportWaitStart(ptr noundef %0) #5 {
  %2 = alloca ptr, align 8
  store ptr %0, ptr %2, align 8
  %3 = load ptr, ptr %2, align 8
  %4 = getelementptr inbounds nuw %struct.LWLock, ptr %3, i32 0, i32 0
  %5 = load i16, ptr %4, align 4
  %6 = zext i16 %5 to i32
  %7 = or i32 16777216, %6
  call void @pgstat_report_wait_start(i32 noundef %7)
  ret void
}

; Function Attrs: nounwind uwtable
define internal zeroext i1 @LWLockAttemptLock(ptr noundef %0, i32 noundef %1) #0 {
  %3 = alloca i1, align 1
  %4 = alloca ptr, align 8
  %5 = alloca i32, align 4
  %6 = alloca i32, align 4
  %7 = alloca i32, align 4
  %8 = alloca i8, align 1
  %9 = alloca i32, align 4
  store ptr %0, ptr %4, align 8
  store i32 %1, ptr %5, align 4
  call void @llvm.lifetime.start.p0(i64 4, ptr %6) #9
  %10 = load ptr, ptr %4, align 8
  %11 = getelementptr inbounds nuw %struct.LWLock, ptr %10, i32 0, i32 1
  %12 = call i32 @pg_atomic_read_u32(ptr noundef %11)
  store i32 %12, ptr %6, align 4
  br label %13

13:                                               ; preds = %53, %2
  br label %14

14:                                               ; preds = %13
  call void @llvm.lifetime.start.p0(i64 4, ptr %7) #9
  call void @llvm.lifetime.start.p0(i64 1, ptr %8) #9
  %15 = load i32, ptr %6, align 4
  store i32 %15, ptr %7, align 4
  %16 = load i32, ptr %5, align 4
  %17 = icmp eq i32 %16, 0
  br i1 %17, label %18, label %29

18:                                               ; preds = %14
  %19 = load i32, ptr %6, align 4
  %20 = and i32 %19, 33554431
  %21 = icmp eq i32 %20, 0
  %22 = zext i1 %21 to i8
  store i8 %22, ptr %8, align 1
  %23 = load i8, ptr %8, align 1, !range !7, !noundef !8
  %24 = trunc i8 %23 to i1
  br i1 %24, label %25, label %28

25:                                               ; preds = %18
  %26 = load i32, ptr %7, align 4
  %27 = add i32 %26, 16777216
  store i32 %27, ptr %7, align 4
  br label %28

28:                                               ; preds = %25, %18
  br label %40

29:                                               ; preds = %14
  %30 = load i32, ptr %6, align 4
  %31 = and i32 %30, 16777216
  %32 = icmp eq i32 %31, 0
  %33 = zext i1 %32 to i8
  store i8 %33, ptr %8, align 1
  %34 = load i8, ptr %8, align 1, !range !7, !noundef !8
  %35 = trunc i8 %34 to i1
  br i1 %35, label %36, label %39

36:                                               ; preds = %29
  %37 = load i32, ptr %7, align 4
  %38 = add i32 %37, 1
  store i32 %38, ptr %7, align 4
  br label %39

39:                                               ; preds = %36, %29
  br label %40

40:                                               ; preds = %39, %28
  %41 = load ptr, ptr %4, align 8
  %42 = getelementptr inbounds nuw %struct.LWLock, ptr %41, i32 0, i32 1
  %43 = load i32, ptr %7, align 4
  %44 = call zeroext i1 @pg_atomic_compare_exchange_u32(ptr noundef %42, ptr noundef %6, i32 noundef %43)
  br i1 %44, label %45, label %50

45:                                               ; preds = %40
  %46 = load i8, ptr %8, align 1, !range !7, !noundef !8
  %47 = trunc i8 %46 to i1
  br i1 %47, label %48, label %49

48:                                               ; preds = %45
  store i1 false, ptr %3, align 1
  store i32 1, ptr %9, align 4
  br label %51

49:                                               ; preds = %45
  store i1 true, ptr %3, align 1
  store i32 1, ptr %9, align 4
  br label %51

50:                                               ; preds = %40
  store i32 0, ptr %9, align 4
  br label %51

51:                                               ; preds = %50, %49, %48
  call void @llvm.lifetime.end.p0(i64 1, ptr %8) #9
  call void @llvm.lifetime.end.p0(i64 4, ptr %7) #9
  %52 = load i32, ptr %9, align 4
  switch i32 %52, label %54 [
    i32 0, label %53
  ]

53:                                               ; preds = %51
  br label %13

54:                                               ; preds = %51
  call void @llvm.lifetime.end.p0(i64 4, ptr %6) #9
  %55 = load i1, ptr %3, align 1
  ret i1 %55
}

; Function Attrs: nounwind uwtable
define dso_local zeroext i1 @LWLockAcquire(ptr noundef %0, i32 noundef %1) #0 {
  %3 = alloca ptr, align 8
  %4 = alloca i32, align 4
  %5 = alloca ptr, align 8
  %6 = alloca i8, align 1
  %7 = alloca i32, align 4
  %8 = alloca i8, align 1
  %9 = alloca i32, align 4
  store ptr %0, ptr %3, align 8
  store i32 %1, ptr %4, align 4
  call void @llvm.lifetime.start.p0(i64 8, ptr %5) #9
  %10 = load ptr, ptr @MyProc, align 8
  store ptr %10, ptr %5, align 8
  call void @llvm.lifetime.start.p0(i64 1, ptr %6) #9
  store i8 1, ptr %6, align 1
  call void @llvm.lifetime.start.p0(i64 4, ptr %7) #9
  store i32 0, ptr %7, align 4
  %11 = load i32, ptr @num_held_lwlocks, align 4
  %12 = icmp sge i32 %11, 200
  br i1 %12, label %13, label %24

13:                                               ; preds = %2
  br label %14

14:                                               ; preds = %13
  br i1 true, label %15, label %17

15:                                               ; preds = %14
  %16 = call zeroext i1 @errstart_cold(i32 noundef 21, ptr noundef null) #11
  br i1 %16, label %19, label %21

17:                                               ; preds = %14
  %18 = call zeroext i1 @errstart(i32 noundef 21, ptr noundef null)
  br i1 %18, label %19, label %21

19:                                               ; preds = %17, %15
  %20 = call i32 (ptr, ...) @errmsg_internal(ptr noundef @.str.3)
  call void @errfinish(ptr noundef @.str.1, i32 noundef 1200, ptr noundef @__func__.LWLockAcquire)
  br label %21

21:                                               ; preds = %19, %17, %15
  unreachable

22:                                               ; No predecessors!
  br label %23

23:                                               ; preds = %22
  br label %24

24:                                               ; preds = %23, %2
  %25 = load volatile i32, ptr @InterruptHoldoffCount, align 4
  %26 = add i32 %25, 1
  store volatile i32 %26, ptr @InterruptHoldoffCount, align 4
  br label %27

27:                                               ; preds = %67, %24
  call void @llvm.lifetime.start.p0(i64 1, ptr %8) #9
  %28 = load ptr, ptr %3, align 8
  %29 = load i32, ptr %4, align 4
  %30 = call zeroext i1 @LWLockAttemptLock(ptr noundef %28, i32 noundef %29)
  %31 = zext i1 %30 to i8
  store i8 %31, ptr %8, align 1
  %32 = load i8, ptr %8, align 1, !range !7, !noundef !8
  %33 = trunc i8 %32 to i1
  br i1 %33, label %35, label %34

34:                                               ; preds = %27
  store i32 4, ptr %9, align 4
  br label %65

35:                                               ; preds = %27
  %36 = load ptr, ptr %3, align 8
  %37 = load i32, ptr %4, align 4
  call void @LWLockQueueSelf(ptr noundef %36, i32 noundef %37)
  %38 = load ptr, ptr %3, align 8
  %39 = load i32, ptr %4, align 4
  %40 = call zeroext i1 @LWLockAttemptLock(ptr noundef %38, i32 noundef %39)
  %41 = zext i1 %40 to i8
  store i8 %41, ptr %8, align 1
  %42 = load i8, ptr %8, align 1, !range !7, !noundef !8
  %43 = trunc i8 %42 to i1
  br i1 %43, label %46, label %44

44:                                               ; preds = %35
  %45 = load ptr, ptr %3, align 8
  call void @LWLockDequeueSelf(ptr noundef %45)
  store i32 4, ptr %9, align 4
  br label %65

46:                                               ; preds = %35
  %47 = load ptr, ptr %3, align 8
  call void @LWLockReportWaitStart(ptr noundef %47)
  br label %48

48:                                               ; preds = %58, %46
  %49 = load ptr, ptr %5, align 8
  %50 = getelementptr inbounds nuw %struct.PGPROC, ptr %49, i32 0, i32 2
  %51 = load ptr, ptr %50, align 8
  call void @PGSemaphoreLock(ptr noundef %51)
  %52 = load ptr, ptr %5, align 8
  %53 = getelementptr inbounds nuw %struct.PGPROC, ptr %52, i32 0, i32 15
  %54 = load i8, ptr %53, align 2
  %55 = zext i8 %54 to i32
  %56 = icmp eq i32 %55, 0
  br i1 %56, label %57, label %58

57:                                               ; preds = %48
  br label %61

58:                                               ; preds = %48
  %59 = load i32, ptr %7, align 4
  %60 = add i32 %59, 1
  store i32 %60, ptr %7, align 4
  br label %48

61:                                               ; preds = %57
  %62 = load ptr, ptr %3, align 8
  %63 = getelementptr inbounds nuw %struct.LWLock, ptr %62, i32 0, i32 1
  %64 = call i32 @pg_atomic_fetch_or_u32(ptr noundef %63, i32 noundef 536870912)
  call void @LWLockReportWaitEnd()
  store i8 0, ptr %6, align 1
  store i32 0, ptr %9, align 4
  br label %65

65:                                               ; preds = %61, %44, %34
  call void @llvm.lifetime.end.p0(i64 1, ptr %8) #9
  %66 = load i32, ptr %9, align 4
  switch i32 %66, label %91 [
    i32 0, label %67
    i32 4, label %68
  ]

67:                                               ; preds = %65
  br label %27

68:                                               ; preds = %65
  %69 = load ptr, ptr %3, align 8
  %70 = load i32, ptr @num_held_lwlocks, align 4
  %71 = sext i32 %70 to i64
  %72 = getelementptr inbounds [200 x %struct.LWLockHandle], ptr @held_lwlocks, i64 0, i64 %71
  %73 = getelementptr inbounds nuw %struct.LWLockHandle, ptr %72, i32 0, i32 0
  store ptr %69, ptr %73, align 16
  %74 = load i32, ptr %4, align 4
  %75 = load i32, ptr @num_held_lwlocks, align 4
  %76 = add i32 %75, 1
  store i32 %76, ptr @num_held_lwlocks, align 4
  %77 = sext i32 %75 to i64
  %78 = getelementptr inbounds [200 x %struct.LWLockHandle], ptr @held_lwlocks, i64 0, i64 %77
  %79 = getelementptr inbounds nuw %struct.LWLockHandle, ptr %78, i32 0, i32 1
  store i32 %74, ptr %79, align 8
  br label %80

80:                                               ; preds = %84, %68
  %81 = load i32, ptr %7, align 4
  %82 = add i32 %81, -1
  store i32 %82, ptr %7, align 4
  %83 = icmp sgt i32 %81, 0
  br i1 %83, label %84, label %88

84:                                               ; preds = %80
  %85 = load ptr, ptr %5, align 8
  %86 = getelementptr inbounds nuw %struct.PGPROC, ptr %85, i32 0, i32 2
  %87 = load ptr, ptr %86, align 8
  call void @PGSemaphoreUnlock(ptr noundef %87)
  br label %80, !llvm.loop !19

88:                                               ; preds = %80
  %89 = load i8, ptr %6, align 1, !range !7, !noundef !8
  %90 = trunc i8 %89 to i1
  store i32 1, ptr %9, align 4
  call void @llvm.lifetime.end.p0(i64 4, ptr %7) #9
  call void @llvm.lifetime.end.p0(i64 1, ptr %6) #9
  call void @llvm.lifetime.end.p0(i64 8, ptr %5) #9
  ret i1 %90

91:                                               ; preds = %65
  unreachable
}