; Function Attrs: nounwind uwtable
define dso_local noundef zeroext i1 @LWLockAcquire(ptr noundef %0, i32 noundef %1) local_unnamed_addr #0 {
  %3 = load i32, ptr @num_held_lwlocks, align 4
  %4 = icmp sgt i32 %3, 199
  br i1 %4, label %5, label %8

5:                                                ; preds = %2
  %6 = tail call zeroext i1 @errstart_cold(i32 noundef 21, ptr noundef null) #17
  tail call void @llvm.assume(i1 %6)
  %7 = tail call i32 (ptr, ...) @errmsg_internal(ptr noundef nonnull @.str.3) #15
  tail call void @errfinish(ptr noundef nonnull @.str.1, i32 noundef 1200, ptr noundef nonnull @__func__.LWLockAcquire) #15
  unreachable

8:                                                ; preds = %2
  %9 = load ptr, ptr @MyProc, align 8
  %10 = load volatile i32, ptr @InterruptHoldoffCount, align 4
  %11 = add i32 %10, 1
  store volatile i32 %11, ptr @InterruptHoldoffCount, align 4
  %12 = getelementptr inbounds nuw i8, ptr %0, i64 4
  %13 = icmp eq i32 %1, 0
  %14 = getelementptr inbounds nuw i8, ptr %9, i64 24
  %15 = getelementptr inbounds nuw i8, ptr %9, i64 90
  br label %16

16:                                               ; preds = %55, %8
  %.020 = phi i1 [ true, %8 ], [ false, %55 ]
  %.019 = phi i32 [ 0, %8 ], [ %.2, %55 ]
  %17 = load volatile i32, ptr %12, align 4
  br i1 %13, label %.split.us.i, label %.split.i

.split.us.i:                                      ; preds = %16, %.split.us.i
  %.0.us.i = phi i32 [ %22, %.split.us.i ], [ %17, %16 ]
  %18 = and i32 %.0.us.i, 33554431
  %19 = icmp eq i32 %18, 0
  %20 = or disjoint i32 %.0.us.i, 16777216
  %spec.select.us.i = select i1 %19, i32 %20, i32 %.0.us.i
  %21 = tail call { i32, i8 } asm sideeffect "\09lock\09\09\09\09\0A\09cmpxchgl\09$4,$5\09\0A   setz\09\09$2\09\09\0A", "={ax},=*m,=q,{ax},r,*m,~{memory},~{cc},~{dirflag},~{fpsr},~{flags}"(ptr nonnull elementtype(i32) %12, i32 %.0.us.i, i32 %spec.select.us.i, ptr nonnull elementtype(i32) %12) #15, !srcloc !19
  %22 = extractvalue { i32, i8 } %21, 0
  %23 = extractvalue { i32, i8 } %21, 1
  %.not.us.i = icmp eq i8 %23, 0
  br i1 %.not.us.i, label %.split.us.i, label %LWLockAttemptLock.exit

.split.i:                                         ; preds = %16, %.split.i
  %.0.i = phi i32 [ %27, %.split.i ], [ %17, %16 ]
  %24 = and i32 %.0.i, 16777216
  %.lobit.i = lshr exact i32 %24, 24
  %25 = xor i32 %.lobit.i, 1
  %spec.select13.i = add nuw nsw i32 %25, %.0.i
  %26 = tail call { i32, i8 } asm sideeffect "\09lock\09\09\09\09\0A\09cmpxchgl\09$4,$5\09\0A   setz\09\09$2\09\09\0A", "={ax},=*m,=q,{ax},r,*m,~{memory},~{cc},~{dirflag},~{fpsr},~{flags}"(ptr nonnull elementtype(i32) %12, i32 %.0.i, i32 %spec.select13.i, ptr nonnull elementtype(i32) %12) #15, !srcloc !19
  %27 = extractvalue { i32, i8 } %26, 0
  %28 = extractvalue { i32, i8 } %26, 1
  %.not.i = icmp eq i8 %28, 0
  br i1 %.not.i, label %.split.i, label %.split18.i

.split18.i:                                       ; preds = %.split.i
  %29 = icmp eq i32 %24, 0
  br i1 %29, label %.loopexit, label %30

LWLockAttemptLock.exit:                           ; preds = %.split.us.i
  br i1 %19, label %.loopexit, label %30

30:                                               ; preds = %.split18.i, %LWLockAttemptLock.exit
  tail call fastcc void @LWLockQueueSelf(ptr noundef %0, i32 noundef %1)
  %31 = load volatile i32, ptr %12, align 4
  br i1 %13, label %.split.us.i30, label %.split.i22

.split.us.i30:                                    ; preds = %30, %.split.us.i30
  %.0.us.i31 = phi i32 [ %36, %.split.us.i30 ], [ %31, %30 ]
  %32 = and i32 %.0.us.i31, 33554431
  %33 = icmp eq i32 %32, 0
  %34 = or disjoint i32 %.0.us.i31, 16777216
  %spec.select.us.i32 = select i1 %33, i32 %34, i32 %.0.us.i31
  %35 = tail call { i32, i8 } asm sideeffect "\09lock\09\09\09\09\0A\09cmpxchgl\09$4,$5\09\0A   setz\09\09$2\09\09\0A", "={ax},=*m,=q,{ax},r,*m,~{memory},~{cc},~{dirflag},~{fpsr},~{flags}"(ptr nonnull elementtype(i32) %12, i32 %.0.us.i31, i32 %spec.select.us.i32, ptr nonnull elementtype(i32) %12) #15, !srcloc !19
  %36 = extractvalue { i32, i8 } %35, 0
  %37 = extractvalue { i32, i8 } %35, 1
  %.not.us.i33 = icmp eq i8 %37, 0
  br i1 %.not.us.i33, label %.split.us.i30, label %LWLockAttemptLock.exit34

.split.i22:                                       ; preds = %30, %.split.i22
  %.0.i23 = phi i32 [ %41, %.split.i22 ], [ %31, %30 ]
  %38 = and i32 %.0.i23, 16777216
  %.lobit.i24 = lshr exact i32 %38, 24
  %39 = xor i32 %.lobit.i24, 1
  %spec.select13.i25 = add nuw nsw i32 %39, %.0.i23
  %40 = tail call { i32, i8 } asm sideeffect "\09lock\09\09\09\09\0A\09cmpxchgl\09$4,$5\09\0A   setz\09\09$2\09\09\0A", "={ax},=*m,=q,{ax},r,*m,~{memory},~{cc},~{dirflag},~{fpsr},~{flags}"(ptr nonnull elementtype(i32) %12, i32 %.0.i23, i32 %spec.select13.i25, ptr nonnull elementtype(i32) %12) #15, !srcloc !19
  %41 = extractvalue { i32, i8 } %40, 0
  %42 = extractvalue { i32, i8 } %40, 1
  %.not.i26 = icmp eq i8 %42, 0
  br i1 %.not.i26, label %.split.i22, label %.split18.i27

.split18.i27:                                     ; preds = %.split.i22
  %43 = icmp eq i32 %38, 0
  br i1 %43, label %44, label %45

LWLockAttemptLock.exit34:                         ; preds = %.split.us.i30
  br i1 %33, label %44, label %45

44:                                               ; preds = %.split18.i27, %LWLockAttemptLock.exit34
  tail call fastcc void @LWLockDequeueSelf(ptr noundef %0)
  br label %.loopexit

45:                                               ; preds = %.split18.i27, %LWLockAttemptLock.exit34
  %46 = load i16, ptr %0, align 4
  %47 = zext i16 %46 to i32
  %48 = or disjoint i32 %47, 16777216
  %49 = load ptr, ptr @my_wait_event_info, align 8
  store volatile i32 %48, ptr %49, align 4
  br label %50

50:                                               ; preds = %50, %45
  %.2 = phi i32 [ %.019, %45 ], [ %54, %50 ]
  %51 = load ptr, ptr %14, align 8
  tail call void @PGSemaphoreLock(ptr noundef %51) #15
  %52 = load i8, ptr %15, align 2
  %53 = icmp eq i8 %52, 0
  %54 = add i32 %.2, 1
  br i1 %53, label %55, label %50

55:                                               ; preds = %50
  %56 = atomicrmw or ptr %12, i32 536870912 seq_cst, align 4
  %57 = load ptr, ptr @my_wait_event_info, align 8
  store volatile i32 0, ptr %57, align 4
  br label %16

.loopexit:                                        ; preds = %LWLockAttemptLock.exit, %.split18.i, %44
  %58 = load i32, ptr @num_held_lwlocks, align 4
  %59 = sext i32 %58 to i64
  %60 = getelementptr inbounds [200 x %struct.LWLockHandle], ptr @held_lwlocks, i64 0, i64 %59
  store ptr %0, ptr %60, align 16
  %61 = add i32 %58, 1
  store i32 %61, ptr @num_held_lwlocks, align 4
  %62 = getelementptr inbounds [200 x %struct.LWLockHandle], ptr @held_lwlocks, i64 0, i64 %59, i32 1
  store i32 %1, ptr %62, align 8
  %63 = icmp sgt i32 %.019, 0
  br i1 %63, label %.lr.ph, label %._crit_edge

.lr.ph:                                           ; preds = %.loopexit, %.lr.ph
  %.348 = phi i32 [ %64, %.lr.ph ], [ %.019, %.loopexit ]
  %64 = add nsw i32 %.348, -1
  %65 = load ptr, ptr %14, align 8
  tail call void @PGSemaphoreUnlock(ptr noundef %65) #15
  %66 = icmp samesign ugt i32 %.348, 1
  br i1 %66, label %.lr.ph, label %._crit_edge, !llvm.loop !20

._crit_edge:                                      ; preds = %.lr.ph, %.loopexit
  ret i1 %.020
}